target datalayout = "e-m:e-p270:32:32-p271:32:32-p272:64:64-i64:64-i128:128-f80:128-n8:16:32:64-S128"
target triple = "x86_64-unknown-linux-gnu"

%class.vector.3 = type { ptr }
%class.ast = type { i32, i24, i32, i32 }

@.str.11 = private unnamed_addr constant [2 x i8] c"#\00", align 1
@.str.12 = private unnamed_addr constant [2 x i8] c" \00", align 1
@.str.13 = private unnamed_addr constant [2 x i8] c"\0A\00", align 1
@.str.19 = private unnamed_addr constant [6 x i8] c"[HEAD\00", align 1
@.str.20 = private unnamed_addr constant [5 x i8] c"]=> \00", align 1

; Function Attrs: mustprogress nounwind uwtable
define linkonce_odr hidden noundef i32 @_ZNK3ast6get_idEv(ptr noundef nonnull align 4 dereferenceable(16) %this) #4 comdat align 2 {
entry:
  %this.addr = alloca ptr, align 8
  store ptr %this, ptr %this.addr, align 8
  %this1 = load ptr, ptr %this.addr, align 8
  %m_id = getelementptr inbounds %class.ast, ptr %this1, i32 0, i32 0
  %0 = load i32, ptr %m_id, align 4
  ret i32 %0
}

; Function Attrs: mustprogress nounwind uwtable
define linkonce_odr hidden noundef nonnull align 8 dereferenceable(8) ptr @_ZN6vectorIP4exprLb0EjEixEj(ptr noundef nonnull align 8 dereferenceable(8) %this, i32 noundef %idx) #4 comdat align 2 {
entry:
  %this.addr = alloca ptr, align 8
  %idx.addr = alloca i32, align 4
  store ptr %this, ptr %this.addr, align 8
  store i32 %idx, ptr %idx.addr, align 4
  %this1 = load ptr, ptr %this.addr, align 8
  %m_data = getelementptr inbounds %class.vector.3, ptr %this1, i32 0, i32 0
  %0 = load ptr, ptr %m_data, align 8
  %1 = load i32, ptr %idx.addr, align 4
  %idxprom = zext i32 %1 to i64
  %arrayidx = getelementptr inbounds ptr, ptr %0, i64 %idxprom
  ret ptr %arrayidx
}

; Function Attrs: mustprogress nounwind uwtable
define linkonce_odr hidden noundef i32 @_ZNK6vectorIP4exprLb0EjE4sizeEv(ptr noundef nonnull align 8 dereferenceable(8) %this) #4 comdat align 2 {
entry:
  %retval = alloca i32, align 4
  %this.addr = alloca ptr, align 8
  store ptr %this, ptr %this.addr, align 8
  %this1 = load ptr, ptr %this.addr, align 8
  %m_data = getelementptr inbounds %class.vector.3, ptr %this1, i32 0, i32 0
  %0 = load ptr, ptr %m_data, align 8
  %cmp = icmp eq ptr %0, null
  br i1 %cmp, label %if.then, label %if.end

if.then:                                          ; preds = %entry
  store i32 0, ptr %retval, align 4
  br label %return

if.end:                                           ; preds = %entry
  %m_data2 = getelementptr inbounds %class.vector.3, ptr %this1, i32 0, i32 0
  %1 = load ptr, ptr %m_data2, align 8
  %arrayidx = getelementptr inbounds i32, ptr %1, i64 -1
  %2 = load i32, ptr %arrayidx, align 4
  store i32 %2, ptr %retval, align 4
  br label %return

return:                                           ; preds = %if.end, %if.then
  %3 = load i32, ptr %retval, align 4
  ret i32 %3
}

; Function Attrs: mustprogress nounwind uwtable
define linkonce_odr hidden noundef zeroext i1 @_ZNK6vectorIP4exprLb0EjE5emptyEv(ptr noundef nonnull align 8 dereferenceable(8) %this) #4 comdat align 2 {
entry:
  %this.addr = alloca ptr, align 8
  store ptr %this, ptr %this.addr, align 8
  %this1 = load ptr, ptr %this.addr, align 8
  %m_data = getelementptr inbounds %class.vector.3, ptr %this1, i32 0, i32 0
  %0 = load ptr, ptr %m_data, align 8
  %cmp = icmp eq ptr %0, null
  br i1 %cmp, label %lor.end, label %lor.rhs

lor.rhs:                                          ; preds = %entry
  %m_data2 = getelementptr inbounds %class.vector.3, ptr %this1, i32 0, i32 0
  %1 = load ptr, ptr %m_data2, align 8
  %arrayidx = getelementptr inbounds i32, ptr %1, i64 -1
  %2 = load i32, ptr %arrayidx, align 4
  %cmp3 = icmp eq i32 %2, 0
  br label %lor.end

lor.end:                                          ; preds = %lor.rhs, %entry
  %3 = phi i1 [ true, %entry ], [ %cmp3, %lor.rhs ]
  ret i1 %3
}

; Function Attrs: mustprogress uwtable
define internal void @_ZN12_GLOBAL__N_120rel_case_split_queue12display_coreERSoR10ptr_vectorI4exprEjj(ptr noundef nonnull align 8 dereferenceable(72) %this, ptr noundef nonnull align 8 dereferenceable(8) %out, ptr noundef nonnull align 8 dereferenceable(8) %queue, i32 noundef %head, i32 noundef %idx) #5 align 2 {
entry:
  %this.addr = alloca ptr, align 8
  %out.addr = alloca ptr, align 8
  %queue.addr = alloca ptr, align 8
  %head.addr = alloca i32, align 4
  %idx.addr = alloca i32, align 4
  %sz = alloca i32, align 4
  %i = alloca i32, align 4
  store ptr %this, ptr %this.addr, align 8
  store ptr %out, ptr %out.addr, align 8
  store ptr %queue, ptr %queue.addr, align 8
  store i32 %head, ptr %head.addr, align 4
  store i32 %idx, ptr %idx.addr, align 4
  %0 = load ptr, ptr %queue.addr, align 8
  %call = call noundef zeroext i1 @_ZNK6vectorIP4exprLb0EjE5emptyEv(ptr noundef nonnull align 8 dereferenceable(8) %0)
  br i1 %call, label %if.then, label %if.end

if.then:                                          ; preds = %entry
  br label %return

if.end:                                           ; preds = %entry
  %1 = load ptr, ptr %queue.addr, align 8
  %call2 = call noundef i32 @_ZNK6vectorIP4exprLb0EjE4sizeEv(ptr noundef nonnull align 8 dereferenceable(8) %1)
  store i32 %call2, ptr %sz, align 4
  store i32 0, ptr %i, align 4
  br label %for.cond

for.cond:                                         ; preds = %for.inc, %if.end
  %2 = load i32, ptr %i, align 4
  %3 = load i32, ptr %sz, align 4
  %cmp = icmp ult i32 %2, %3
  br i1 %cmp, label %for.body, label %for.end

for.body:                                         ; preds = %for.cond
  %4 = load i32, ptr %i, align 4
  %5 = load i32, ptr %head.addr, align 4
  %cmp3 = icmp eq i32 %4, %5
  br i1 %cmp3, label %if.then4, label %if.end8

if.then4:                                         ; preds = %for.body
  %6 = load ptr, ptr %out.addr, align 8
  %call5 = call noundef nonnull align 8 dereferenceable(8) ptr @_ZStlsISt11char_traitsIcEERSt13basic_ostreamIcT_ES5_PKc(ptr noundef nonnull align 8 dereferenceable(8) %6, ptr noundef @.str.19)
  %7 = load i32, ptr %idx.addr, align 4
  %call6 = call noundef nonnull align 8 dereferenceable(8) ptr @_ZNSolsEj(ptr noundef nonnull align 8 dereferenceable(8) %call5, i32 noundef %7)
  %call7 = call noundef nonnull align 8 dereferenceable(8) ptr @_ZStlsISt11char_traitsIcEERSt13basic_ostreamIcT_ES5_PKc(ptr noundef nonnull align 8 dereferenceable(8) %call6, ptr noundef @.str.20)
  br label %if.end8

if.end8:                                          ; preds = %if.then4, %for.body
  %8 = load ptr, ptr %out.addr, align 8
  %call9 = call noundef nonnull align 8 dereferenceable(8) ptr @_ZStlsISt11char_traitsIcEERSt13basic_ostreamIcT_ES5_PKc(ptr noundef nonnull align 8 dereferenceable(8) %8, ptr noundef @.str.11)
  %9 = load ptr, ptr %queue.addr, align 8
  %10 = load i32, ptr %i, align 4
  %call10 = call noundef nonnull align 8 dereferenceable(8) ptr @_ZN6vectorIP4exprLb0EjEixEj(ptr noundef nonnull align 8 dereferenceable(8) %9, i32 noundef %10)
  %11 = load ptr, ptr %call10, align 8
  %call11 = call noundef i32 @_ZNK3ast6get_idEv(ptr noundef nonnull align 4 dereferenceable(16) %11)
  %call12 = call noundef nonnull align 8 dereferenceable(8) ptr @_ZNSolsEj(ptr noundef nonnull align 8 dereferenceable(8) %call9, i32 noundef %call11)
  %call13 = call noundef nonnull align 8 dereferenceable(8) ptr @_ZStlsISt11char_traitsIcEERSt13basic_ostreamIcT_ES5_PKc(ptr noundef nonnull align 8 dereferenceable(8) %call12, ptr noundef @.str.12)
  br label %for.inc

for.inc:                                          ; preds = %if.end8
  %12 = load i32, ptr %i, align 4
  %inc = add i32 %12, 1
  store i32 %inc, ptr %i, align 4
  br label %for.cond, !llvm.loop !24

for.end:                                          ; preds = %for.cond
  %13 = load ptr, ptr %out.addr, align 8
  %call14 = call noundef nonnull align 8 dereferenceable(8) ptr @_ZStlsISt11char_traitsIcEERSt13basic_ostreamIcT_ES5_PKc(ptr noundef nonnull align 8 dereferenceable(8) %13, ptr noundef @.str.13)
  br label %return

return:                                           ; preds = %for.end, %if.then
  ret void
}